target datalayout = "e-m:e-p270:32:32-p271:32:32-p272:64:64-i64:64-i128:128-f80:128-n8:16:32:64-S128"
target triple = "x86_64-pc-linux-gnu"

%"class.std::locale" = type { ptr }
%class.cmGeneratedFileStreamBase = type <{ %"class.std::__cxx11::basic_string", %"class.std::__cxx11::basic_string", %"class.std::__cxx11::basic_string", i8, i8, i8, i8, [4 x i8] }>
%"class.std::__cxx11::basic_string" = type { %"struct.std::__cxx11::basic_string<char>::_Alloc_hider", i64, %union.anon }
%"struct.std::__cxx11::basic_string<char>::_Alloc_hider" = type { ptr }
%union.anon = type { i64, [8 x i8] }
%"class.std::ios_base" = type { ptr, i64, i64, i32, i32, i32, ptr, %"struct.std::ios_base::_Words", [8 x %"struct.std::ios_base::_Words"], i32, ptr, %"class.std::locale" }
%"struct.std::ios_base::_Words" = type { ptr, i64 }

@.str = private unnamed_addr constant [29 x i8] c"Cannot open file for write: \00", align 1
@.str.1 = private unnamed_addr constant [1 x i8] zeroinitializer, align 1
@__const.cmGeneratedFileStream.magic = private unnamed_addr constant [3 x i8] c"\EF\BB\BF", align 1

; Function Attrs: mustprogress nounwind uwtable
define linkonce_odr dso_local void @_ZNKSt8ios_base6getlocEv(ptr dead_on_unwind noalias writable sret(%"class.std::locale") align 8 %0, ptr noundef nonnull align 8 dereferenceable(216) %1) #5 comdat align 2 {
  %3 = alloca ptr, align 8
  %4 = alloca ptr, align 8
  store ptr %0, ptr %3, align 8
  store ptr %1, ptr %4, align 8
  %5 = load ptr, ptr %4, align 8
  %6 = getelementptr inbounds %"class.std::ios_base", ptr %5, i32 0, i32 11
  call void @_ZNSt6localeC1ERKS_(ptr noundef nonnull align 8 dereferenceable(8) %0, ptr noundef nonnull align 8 dereferenceable(8) %6) #3
  ret void
}

; Function Attrs: mustprogress uwtable
define dso_local void @_ZN25cmGeneratedFileStreamBaseC2ERKNSt7__cxx1112basic_stringIcSt11char_traitsIcESaIcEEE(ptr noundef nonnull align 8 dereferenceable(100) %0, ptr noundef nonnull align 8 dereferenceable(32) %1) unnamed_addr #4 align 2 personality ptr @__gxx_personality_v0 {
  %3 = alloca ptr, align 8
  %4 = alloca ptr, align 8
  %5 = alloca ptr, align 8
  %6 = alloca i32, align 4
  store ptr %0, ptr %3, align 8
  store ptr %1, ptr %4, align 8
  %7 = load ptr, ptr %3, align 8
  %8 = getelementptr inbounds %class.cmGeneratedFileStreamBase, ptr %7, i32 0, i32 0
  call void @_ZNSt7__cxx1112basic_stringIcSt11char_traitsIcESaIcEEC1Ev(ptr noundef nonnull align 8 dereferenceable(32) %8) #3
  %9 = getelementptr inbounds %class.cmGeneratedFileStreamBase, ptr %7, i32 0, i32 1
  call void @_ZNSt7__cxx1112basic_stringIcSt11char_traitsIcESaIcEEC1Ev(ptr noundef nonnull align 8 dereferenceable(32) %9) #3
  %10 = getelementptr inbounds %class.cmGeneratedFileStreamBase, ptr %7, i32 0, i32 2
  call void @_ZNSt7__cxx1112basic_stringIcSt11char_traitsIcESaIcEEC1Ev(ptr noundef nonnull align 8 dereferenceable(32) %10) #3
  %11 = getelementptr inbounds %class.cmGeneratedFileStreamBase, ptr %7, i32 0, i32 3
  store i8 0, ptr %11, align 8
  %12 = getelementptr inbounds %class.cmGeneratedFileStreamBase, ptr %7, i32 0, i32 4
  store i8 0, ptr %12, align 1
  %13 = getelementptr inbounds %class.cmGeneratedFileStreamBase, ptr %7, i32 0, i32 5
  store i8 0, ptr %13, align 2
  %14 = getelementptr inbounds %class.cmGeneratedFileStreamBase, ptr %7, i32 0, i32 6
  store i8 1, ptr %14, align 1
  %15 = load ptr, ptr %4, align 8
  invoke void @_ZN25cmGeneratedFileStreamBase4OpenERKNSt7__cxx1112basic_stringIcSt11char_traitsIcESaIcEEE(ptr noundef nonnull align 8 dereferenceable(100) %7, ptr noundef nonnull align 8 dereferenceable(32) %15)
          to label %16 unwind label %17

16:                                               ; preds = %2
  ret void

17:                                               ; preds = %2
  %18 = landingpad { ptr, i32 }
          cleanup
  %19 = extractvalue { ptr, i32 } %18, 0
  store ptr %19, ptr %5, align 8
  %20 = extractvalue { ptr, i32 } %18, 1
  store i32 %20, ptr %6, align 4
  call void @_ZNSt7__cxx1112basic_stringIcSt11char_traitsIcESaIcEED1Ev(ptr noundef nonnull align 8 dereferenceable(32) %10) #3
  call void @_ZNSt7__cxx1112basic_stringIcSt11char_traitsIcESaIcEED1Ev(ptr noundef nonnull align 8 dereferenceable(32) %9) #3
  call void @_ZNSt7__cxx1112basic_stringIcSt11char_traitsIcESaIcEED1Ev(ptr noundef nonnull align 8 dereferenceable(32) %8) #3
  br label %21

21:                                               ; preds = %17
  %22 = load ptr, ptr %5, align 8
  %23 = load i32, ptr %6, align 4
  %24 = insertvalue { ptr, i32 } poison, ptr %22, 0
  %25 = insertvalue { ptr, i32 } %24, i32 %23, 1
  resume { ptr, i32 } %25
}

; Function Attrs: mustprogress uwtable
define dso_local void @_ZN21cmGeneratedFileStreamC1ERKNSt7__cxx1112basic_stringIcSt11char_traitsIcESaIcEEEb16codecvt_Encoding(ptr noundef nonnull align 8 dereferenceable(348) %0, ptr noundef nonnull align 8 dereferenceable(32) %1, i1 noundef zeroext %2, i32 noundef %3) unnamed_addr #4 align 2 personality ptr @__gxx_personality_v0 {
  %5 = alloca ptr, align 8
  %6 = alloca ptr, align 8
  %7 = alloca i8, align 1
  %8 = alloca i32, align 4
  %9 = alloca ptr, align 8
  %10 = alloca i32, align 4
  %11 = alloca %"class.std::__cxx11::basic_string", align 8
  %12 = alloca %"class.std::locale", align 8
  %13 = alloca %"class.std::locale", align 8
  %14 = alloca %"class.std::locale", align 8
  %15 = alloca [3 x i8], align 1
  store ptr %0, ptr %5, align 8
  store ptr %1, ptr %6, align 8
  %16 = zext i1 %2 to i8
  store i8 %16, ptr %7, align 1
  store i32 %3, ptr %8, align 4
  %17 = load ptr, ptr %5, align 8
  %18 = getelementptr inbounds i8, ptr %17, i64 352
  call void @_ZNSt9basic_iosIcSt11char_traitsIcEEC2Ev(ptr noundef nonnull align 8 dereferenceable(264) %18)
  %19 = getelementptr inbounds i8, ptr %17, i64 248
  %20 = load ptr, ptr %6, align 8
  invoke void @_ZN25cmGeneratedFileStreamBaseC2ERKNSt7__cxx1112basic_stringIcSt11char_traitsIcESaIcEEE(ptr noundef nonnull align 8 dereferenceable(100) %19, ptr noundef nonnull align 8 dereferenceable(32) %20)
          to label %21 unwind label %43

21:                                               ; preds = %4
  store ptr getelementptr inbounds ({ [5 x ptr], [5 x ptr] }, ptr @_ZTV21cmGeneratedFileStream, i32 0, i32 0, i32 3), ptr %17, align 8
  %22 = getelementptr inbounds i8, ptr %17, i64 352
  store ptr getelementptr inbounds ({ [5 x ptr], [5 x ptr] }, ptr @_ZTV21cmGeneratedFileStream, i32 0, i32 1, i32 3), ptr %22, align 8
  %23 = getelementptr inbounds i8, ptr %17, i64 248
  %24 = getelementptr inbounds %class.cmGeneratedFileStreamBase, ptr %23, i32 0, i32 2
  %25 = call noundef ptr @_ZNKSt7__cxx1112basic_stringIcSt11char_traitsIcESaIcEE5c_strEv(ptr noundef nonnull align 8 dereferenceable(32) %24) #3
  invoke void @_ZNSt14basic_ofstreamIcSt11char_traitsIcEEC2EPKcSt13_Ios_Openmode(ptr noundef nonnull align 8 dereferenceable(248) %17, ptr noundef getelementptr inbounds ([6 x ptr], ptr @_ZTT21cmGeneratedFileStream, i64 0, i64 1), ptr noundef %25, i32 noundef 16)
          to label %26 unwind label %47

26:                                               ; preds = %21
  store ptr getelementptr inbounds ({ [5 x ptr], [5 x ptr] }, ptr @_ZTV21cmGeneratedFileStream, i32 0, i32 0, i32 3), ptr %17, align 8
  %27 = getelementptr inbounds i8, ptr %17, i64 352
  store ptr getelementptr inbounds ({ [5 x ptr], [5 x ptr] }, ptr @_ZTV21cmGeneratedFileStream, i32 0, i32 1, i32 3), ptr %27, align 8
  %28 = load ptr, ptr %17, align 8
  %29 = getelementptr i8, ptr %28, i64 -24
  %30 = load i64, ptr %29, align 8
  %31 = getelementptr inbounds i8, ptr %17, i64 %30
  %32 = invoke noundef zeroext i1 @_ZNKSt9basic_iosIcSt11char_traitsIcEEntEv(ptr noundef nonnull align 8 dereferenceable(264) %31)
          to label %33 unwind label %51

33:                                               ; preds = %26
  br i1 %32, label %34, label %59

34:                                               ; preds = %33
  %35 = load i8, ptr %7, align 1
  %36 = trunc i8 %35 to i1
  br i1 %36, label %59, label %37

37:                                               ; preds = %34
  %38 = getelementptr inbounds i8, ptr %17, i64 248
  %39 = getelementptr inbounds %class.cmGeneratedFileStreamBase, ptr %38, i32 0, i32 2
  invoke void @_ZStplIcSt11char_traitsIcESaIcEENSt7__cxx1112basic_stringIT_T0_T1_EEPKS5_RKS8_(ptr dead_on_unwind writable sret(%"class.std::__cxx11::basic_string") align 8 %11, ptr noundef @.str, ptr noundef nonnull align 8 dereferenceable(32) %39)
          to label %40 unwind label %51

40:                                               ; preds = %37
  invoke void @_ZN13cmSystemTools5ErrorERKNSt7__cxx1112basic_stringIcSt11char_traitsIcESaIcEEE(ptr noundef nonnull align 8 dereferenceable(32) %11)
          to label %41 unwind label %55

41:                                               ; preds = %40
  call void @_ZNSt7__cxx1112basic_stringIcSt11char_traitsIcESaIcEED1Ev(ptr noundef nonnull align 8 dereferenceable(32) %11) #3
  invoke void @_ZN13cmSystemTools21ReportLastSystemErrorEPKc(ptr noundef @.str.1)
          to label %42 unwind label %51

42:                                               ; preds = %41
  br label %59

43:                                               ; preds = %4
  %44 = landingpad { ptr, i32 }
          cleanup
  %45 = extractvalue { ptr, i32 } %44, 0
  store ptr %45, ptr %9, align 8
  %46 = extractvalue { ptr, i32 } %44, 1
  store i32 %46, ptr %10, align 4
  br label %102

47:                                               ; preds = %21
  %48 = landingpad { ptr, i32 }
          cleanup
  %49 = extractvalue { ptr, i32 } %48, 0
  store ptr %49, ptr %9, align 8
  %50 = extractvalue { ptr, i32 } %48, 1
  store i32 %50, ptr %10, align 4
  br label %100

51:                                               ; preds = %94, %62, %41, %37, %26
  %52 = landingpad { ptr, i32 }
          cleanup
  %53 = extractvalue { ptr, i32 } %52, 0
  store ptr %53, ptr %9, align 8
  %54 = extractvalue { ptr, i32 } %52, 1
  store i32 %54, ptr %10, align 4
  br label %99

55:                                               ; preds = %40
  %56 = landingpad { ptr, i32 }
          cleanup
  %57 = extractvalue { ptr, i32 } %56, 0
  store ptr %57, ptr %9, align 8
  %58 = extractvalue { ptr, i32 } %56, 1
  store i32 %58, ptr %10, align 4
  call void @_ZNSt7__cxx1112basic_stringIcSt11char_traitsIcESaIcEED1Ev(ptr noundef nonnull align 8 dereferenceable(32) %11) #3
  br label %99

59:                                               ; preds = %42, %34, %33
  %60 = load i32, ptr %8, align 4
  %61 = icmp ne i32 %60, 0
  br i1 %61, label %62, label %91

62:                                               ; preds = %59
  %63 = load ptr, ptr %17, align 8
  %64 = getelementptr i8, ptr %63, i64 -24
  %65 = load i64, ptr %64, align 8
  %66 = getelementptr inbounds i8, ptr %17, i64 %65
  %67 = load ptr, ptr %17, align 8
  %68 = getelementptr i8, ptr %67, i64 -24
  %69 = load i64, ptr %68, align 8
  %70 = getelementptr inbounds i8, ptr %17, i64 %69
  invoke void @_ZNKSt8ios_base6getlocEv(ptr dead_on_unwind writable sret(%"class.std::locale") align 8 %14, ptr noundef nonnull align 8 dereferenceable(216) %70)
          to label %71 unwind label %51

71:                                               ; preds = %62
  %72 = invoke noalias noundef nonnull ptr @_Znwm(i64 noundef 32) #11
          to label %73 unwind label %78

73:                                               ; preds = %71
  %74 = load i32, ptr %8, align 4
  invoke void @_ZN7codecvtC1E16codecvt_Encoding(ptr noundef nonnull align 8 dereferenceable(25) %72, i32 noundef %74)
          to label %75 unwind label %82

75:                                               ; preds = %73
  invoke void @_ZNSt6localeC2I7codecvtEERKS_PT_(ptr noundef nonnull align 8 dereferenceable(8) %13, ptr noundef nonnull align 8 dereferenceable(8) %14, ptr noundef %72)
          to label %76 unwind label %78

76:                                               ; preds = %75
  invoke void @_ZNSt9basic_iosIcSt11char_traitsIcEE5imbueERKSt6locale(ptr dead_on_unwind writable sret(%"class.std::locale") align 8 %12, ptr noundef nonnull align 8 dereferenceable(264) %66, ptr noundef nonnull align 8 dereferenceable(8) %13)
          to label %77 unwind label %86

77:                                               ; preds = %76
  call void @_ZNSt6localeD1Ev(ptr noundef nonnull align 8 dereferenceable(8) %12) #3
  call void @_ZNSt6localeD1Ev(ptr noundef nonnull align 8 dereferenceable(8) %13) #3
  call void @_ZNSt6localeD1Ev(ptr noundef nonnull align 8 dereferenceable(8) %14) #3
  br label %91

78:                                               ; preds = %75, %71
  %79 = landingpad { ptr, i32 }
          cleanup
  %80 = extractvalue { ptr, i32 } %79, 0
  store ptr %80, ptr %9, align 8
  %81 = extractvalue { ptr, i32 } %79, 1
  store i32 %81, ptr %10, align 4
  br label %90

82:                                               ; preds = %73
  %83 = landingpad { ptr, i32 }
          cleanup
  %84 = extractvalue { ptr, i32 } %83, 0
  store ptr %84, ptr %9, align 8
  %85 = extractvalue { ptr, i32 } %83, 1
  store i32 %85, ptr %10, align 4
  call void @_ZdlPv(ptr noundef %72) #12
  br label %90

86:                                               ; preds = %76
  %87 = landingpad { ptr, i32 }
          cleanup
  %88 = extractvalue { ptr, i32 } %87, 0
  store ptr %88, ptr %9, align 8
  %89 = extractvalue { ptr, i32 } %87, 1
  store i32 %89, ptr %10, align 4
  call void @_ZNSt6localeD1Ev(ptr noundef nonnull align 8 dereferenceable(8) %13) #3
  br label %90

90:                                               ; preds = %86, %82, %78
  call void @_ZNSt6localeD1Ev(ptr noundef nonnull align 8 dereferenceable(8) %14) #3
  br label %99

91:                                               ; preds = %77, %59
  %92 = load i32, ptr %8, align 4
  %93 = icmp eq i32 %92, 2
  br i1 %93, label %94, label %98

94:                                               ; preds = %91
  call void @llvm.memcpy.p0.p0.i64(ptr align 1 %15, ptr align 1 @__const.cmGeneratedFileStream.magic, i64 3, i1 false)
  %95 = getelementptr inbounds [3 x i8], ptr %15, i64 0, i64 0
  %96 = invoke noundef nonnull align 8 dereferenceable(8) ptr @_ZNSo5writeEPKcl(ptr noundef nonnull align 8 dereferenceable(8) %17, ptr noundef %95, i64 noundef 3)
          to label %97 unwind label %51

97:                                               ; preds = %94
  br label %98

98:                                               ; preds = %97, %91
  ret void

99:                                               ; preds = %90, %55, %51
  call void @_ZNSt14basic_ofstreamIcSt11char_traitsIcEED2Ev(ptr noundef nonnull align 8 dereferenceable(248) %17, ptr noundef getelementptr inbounds ([6 x ptr], ptr @_ZTT21cmGeneratedFileStream, i64 0, i64 1)) #3
  br label %100

100:                                              ; preds = %99, %47
  %101 = getelementptr inbounds i8, ptr %17, i64 248
  call void @_ZN25cmGeneratedFileStreamBaseD2Ev(ptr noundef nonnull align 8 dereferenceable(100) %101) #3
  br label %102

102:                                              ; preds = %100, %43
  %103 = getelementptr inbounds i8, ptr %17, i64 352
  call void @_ZNSt9basic_iosIcSt11char_traitsIcEED2Ev(ptr noundef nonnull align 8 dereferenceable(264) %103) #3
  br label %104

104:                                              ; preds = %102
  %105 = load ptr, ptr %9, align 8
  %106 = load i32, ptr %10, align 4
  %107 = insertvalue { ptr, i32 } poison, ptr %105, 0
  %108 = insertvalue { ptr, i32 } %107, i32 %106, 1
  resume { ptr, i32 } %108
}