; Function Attrs: mustprogress uwtable
define dso_local void @_ZN21cmGeneratedFileStreamC1ERKNSt7__cxx1112basic_stringIcSt11char_traitsIcESaIcEEEb16codecvt_Encoding(ptr noundef nonnull align 8 dereferenceable(348) %0, ptr noundef nonnull align 8 dereferenceable(32) %1, i1 noundef zeroext %2, i32 noundef %3) unnamed_addr #3 align 2 personality ptr @__gxx_personality_v0 {
  %5 = alloca %"class.std::__cxx11::basic_string", align 8
  %6 = alloca %"class.std::locale", align 8
  %7 = alloca %"class.std::locale", align 8
  %8 = alloca %"class.std::locale", align 8
  %9 = alloca [3 x i8], align 1
  %10 = getelementptr inbounds i8, ptr %0, i64 352
  tail call void @_ZNSt9basic_iosIcSt11char_traitsIcEEC2Ev(ptr noundef nonnull align 8 dereferenceable(264) %10)
  %11 = getelementptr inbounds i8, ptr %0, i64 248
  tail call void @_ZNSt7__cxx1112basic_stringIcSt11char_traitsIcESaIcEEC1Ev(ptr noundef nonnull align 8 dereferenceable(32) %11) #15
  %12 = getelementptr inbounds i8, ptr %0, i64 280
  tail call void @_ZNSt7__cxx1112basic_stringIcSt11char_traitsIcESaIcEEC1Ev(ptr noundef nonnull align 8 dereferenceable(32) %12) #15
  %13 = getelementptr inbounds i8, ptr %0, i64 312
  tail call void @_ZNSt7__cxx1112basic_stringIcSt11char_traitsIcESaIcEEC1Ev(ptr noundef nonnull align 8 dereferenceable(32) %13) #15
  %14 = getelementptr inbounds i8, ptr %0, i64 344
  store <4 x i8> <i8 0, i8 0, i8 0, i8 1>, ptr %14, align 8
  invoke void @_ZN25cmGeneratedFileStreamBase4OpenERKNSt7__cxx1112basic_stringIcSt11char_traitsIcESaIcEEE(ptr noundef nonnull align 8 dereferenceable(100) %11, ptr noundef nonnull align 8 dereferenceable(32) %1)
          to label %_ZN25cmGeneratedFileStreamBaseC2ERKNSt7__cxx1112basic_stringIcSt11char_traitsIcESaIcEEE.exit unwind label %15

15:                                               ; preds = %4
  %16 = landingpad { ptr, i32 }
          cleanup
  tail call void @_ZNSt7__cxx1112basic_stringIcSt11char_traitsIcESaIcEED1Ev(ptr noundef nonnull align 8 dereferenceable(32) %13) #15
  tail call void @_ZNSt7__cxx1112basic_stringIcSt11char_traitsIcESaIcEED1Ev(ptr noundef nonnull align 8 dereferenceable(32) %12) #15
  tail call void @_ZNSt7__cxx1112basic_stringIcSt11char_traitsIcESaIcEED1Ev(ptr noundef nonnull align 8 dereferenceable(32) %11) #15
  br label %.body

_ZN25cmGeneratedFileStreamBaseC2ERKNSt7__cxx1112basic_stringIcSt11char_traitsIcESaIcEEE.exit: ; preds = %4
  store ptr getelementptr inbounds ({ [5 x ptr], [5 x ptr] }, ptr @_ZTV21cmGeneratedFileStream, i64 0, i32 0, i64 3), ptr %0, align 8
  store ptr getelementptr inbounds ({ [5 x ptr], [5 x ptr] }, ptr @_ZTV21cmGeneratedFileStream, i64 0, i32 1, i64 3), ptr %10, align 8
  %17 = tail call noundef ptr @_ZNKSt7__cxx1112basic_stringIcSt11char_traitsIcESaIcEE5c_strEv(ptr noundef nonnull align 8 dereferenceable(32) %13) #15
  invoke void @_ZNSt14basic_ofstreamIcSt11char_traitsIcEEC2EPKcSt13_Ios_Openmode(ptr noundef nonnull align 8 dereferenceable(248) %0, ptr noundef nonnull getelementptr inbounds ([6 x ptr], ptr @_ZTT21cmGeneratedFileStream, i64 0, i64 1), ptr noundef %17, i32 noundef 16)
          to label %18 unwind label %24

18:                                               ; preds = %_ZN25cmGeneratedFileStreamBaseC2ERKNSt7__cxx1112basic_stringIcSt11char_traitsIcESaIcEEE.exit
  store ptr getelementptr inbounds ({ [5 x ptr], [5 x ptr] }, ptr @_ZTV21cmGeneratedFileStream, i64 0, i32 0, i64 3), ptr %0, align 8
  store ptr getelementptr inbounds ({ [5 x ptr], [5 x ptr] }, ptr @_ZTV21cmGeneratedFileStream, i64 0, i32 1, i64 3), ptr %10, align 8
  %19 = invoke noundef zeroext i1 @_ZNKSt9basic_iosIcSt11char_traitsIcEEntEv(ptr noundef nonnull align 8 dereferenceable(264) %10)
          to label %20 unwind label %26

20:                                               ; preds = %18
  %.not17 = xor i1 %19, true
  %brmerge = or i1 %.not17, %2
  br i1 %brmerge, label %30, label %21

21:                                               ; preds = %20
  invoke void @_ZStplIcSt11char_traitsIcESaIcEENSt7__cxx1112basic_stringIT_T0_T1_EEPKS5_RKS8_(ptr dead_on_unwind nonnull writable sret(%"class.std::__cxx11::basic_string") align 8 %5, ptr noundef nonnull @.str, ptr noundef nonnull align 8 dereferenceable(32) %13)
          to label %22 unwind label %26

22:                                               ; preds = %21
  invoke void @_ZN13cmSystemTools5ErrorERKNSt7__cxx1112basic_stringIcSt11char_traitsIcESaIcEEE(ptr noundef nonnull align 8 dereferenceable(32) %5)
          to label %23 unwind label %28

23:                                               ; preds = %22
  call void @_ZNSt7__cxx1112basic_stringIcSt11char_traitsIcESaIcEED1Ev(ptr noundef nonnull align 8 dereferenceable(32) %5) #15
  invoke void @_ZN13cmSystemTools21ReportLastSystemErrorEPKc(ptr noundef nonnull @.str.1)
          to label %30 unwind label %26

24:                                               ; preds = %_ZN25cmGeneratedFileStreamBaseC2ERKNSt7__cxx1112basic_stringIcSt11char_traitsIcESaIcEEE.exit
  %25 = landingpad { ptr, i32 }
          cleanup
  br label %54

26:                                               ; preds = %50, %23, %21, %18
  %27 = landingpad { ptr, i32 }
          cleanup
  br label %53

28:                                               ; preds = %22
  %29 = landingpad { ptr, i32 }
          cleanup
  call void @_ZNSt7__cxx1112basic_stringIcSt11char_traitsIcESaIcEED1Ev(ptr noundef nonnull align 8 dereferenceable(32) %5) #15
  br label %53

30:                                               ; preds = %20, %23
  %cond = icmp eq i32 %3, 0
  br i1 %cond, label %52, label %31

31:                                               ; preds = %30
  %32 = load ptr, ptr %0, align 8
  %33 = getelementptr i8, ptr %32, i64 -24
  %34 = load i64, ptr %33, align 8
  %35 = getelementptr inbounds i8, ptr %0, i64 %34
  %36 = getelementptr inbounds i8, ptr %35, i64 208
  call void @_ZNSt6localeC1ERKS_(ptr noundef nonnull align 8 dereferenceable(8) %8, ptr noundef nonnull align 8 dereferenceable(8) %36) #15
  %37 = invoke noalias noundef nonnull dereferenceable(32) ptr @_Znwm(i64 noundef 32) #16
          to label %38 unwind label %43

38:                                               ; preds = %31
  invoke void @_ZN7codecvtC1E16codecvt_Encoding(ptr noundef nonnull align 8 dereferenceable(25) %37, i32 noundef %3)
          to label %39 unwind label %45

39:                                               ; preds = %38
  invoke void @_ZNSt6localeC2I7codecvtEERKS_PT_(ptr noundef nonnull align 8 dereferenceable(8) %7, ptr noundef nonnull align 8 dereferenceable(8) %8, ptr noundef nonnull %37)
          to label %40 unwind label %43

40:                                               ; preds = %39
  invoke void @_ZNSt9basic_iosIcSt11char_traitsIcEE5imbueERKSt6locale(ptr dead_on_unwind nonnull writable sret(%"class.std::locale") align 8 %6, ptr noundef nonnull align 8 dereferenceable(264) %35, ptr noundef nonnull align 8 dereferenceable(8) %7)
          to label %41 unwind label %47

41:                                               ; preds = %40
  call void @_ZNSt6localeD1Ev(ptr noundef nonnull align 8 dereferenceable(8) %6) #15
  call void @_ZNSt6localeD1Ev(ptr noundef nonnull align 8 dereferenceable(8) %7) #15
  call void @_ZNSt6localeD1Ev(ptr noundef nonnull align 8 dereferenceable(8) %8) #15
  %42 = icmp eq i32 %3, 2
  br i1 %42, label %50, label %52

43:                                               ; preds = %39, %31
  %44 = landingpad { ptr, i32 }
          cleanup
  br label %49

45:                                               ; preds = %38
  %46 = landingpad { ptr, i32 }
          cleanup
  call void @_ZdlPv(ptr noundef nonnull %37) #17
  br label %49

47:                                               ; preds = %40
  %48 = landingpad { ptr, i32 }
          cleanup
  call void @_ZNSt6localeD1Ev(ptr noundef nonnull align 8 dereferenceable(8) %7) #15
  br label %49

49:                                               ; preds = %47, %45, %43
  %.pn = phi { ptr, i32 } [ %48, %47 ], [ %44, %43 ], [ %46, %45 ]
  call void @_ZNSt6localeD1Ev(ptr noundef nonnull align 8 dereferenceable(8) %8) #15
  br label %53

50:                                               ; preds = %41
  call void @llvm.memcpy.p0.p0.i64(ptr noundef nonnull align 1 dereferenceable(3) %9, ptr noundef nonnull align 1 dereferenceable(3) @__const.cmGeneratedFileStream.magic, i64 3, i1 false)
  %51 = invoke noundef nonnull align 8 dereferenceable(8) ptr @_ZNSo5writeEPKcl(ptr noundef nonnull align 8 dereferenceable(8) %0, ptr noundef nonnull %9, i64 noundef 3)
          to label %52 unwind label %26

52:                                               ; preds = %30, %50, %41
  ret void

53:                                               ; preds = %49, %28, %26
  %.pn13 = phi { ptr, i32 } [ %27, %26 ], [ %.pn, %49 ], [ %29, %28 ]
  call void @_ZNSt14basic_ofstreamIcSt11char_traitsIcEED2Ev(ptr noundef nonnull align 8 dereferenceable(248) %0, ptr noundef nonnull getelementptr inbounds ([6 x ptr], ptr @_ZTT21cmGeneratedFileStream, i64 0, i64 1)) #15
  br label %54

54:                                               ; preds = %53, %24
  %.pn13.pn = phi { ptr, i32 } [ %.pn13, %53 ], [ %25, %24 ]
  call void @_ZN25cmGeneratedFileStreamBaseD2Ev(ptr noundef nonnull align 8 dereferenceable(100) %11) #15
  br label %.body

.body:                                            ; preds = %15, %54
  %.pn13.pn.pn = phi { ptr, i32 } [ %.pn13.pn, %54 ], [ %16, %15 ]
  call void @_ZNSt9basic_iosIcSt11char_traitsIcEED2Ev(ptr noundef nonnull align 8 dereferenceable(264) %10) #15
  resume { ptr, i32 } %.pn13.pn.pn
}